target datalayout = "e-m:e-p270:32:32-p271:32:32-p272:64:64-i64:64-i128:128-f80:128-n8:16:32:64-S128"
target triple = "x86_64-pc-linux-gnu"

%"class.ncnn::Net" = type { ptr, %"class.ncnn::Option", ptr }
%"class.ncnn::Option" = type { i8, i32, ptr, ptr, i32, i8, i8, i8, i8, i8, i8, i8, i8, i8, i8, i8, i8, i8, i8, i8, i8, i8, i8, i8, i8, i32, i8, i8, i8, i8, i8, i8, i8, i8, i8, i8, i8, i8 }

; Function Attrs: mustprogress nounwind uwtable
define hidden void @_ZN4ncnn3NetD2Ev(ptr noundef nonnull align 8 dereferenceable(80) %0) unnamed_addr #0 align 2 personality ptr @__gxx_personality_v0 {
  %2 = alloca ptr, align 8
  store ptr %0, ptr %2, align 8, !tbaa !4
  %3 = load ptr, ptr %2, align 8
  store ptr getelementptr inbounds inrange(-16, 56) ({ [9 x ptr] }, ptr @_ZTVN4ncnn3NetE, i32 0, i32 0, i32 2), ptr %3, align 8, !tbaa !24
  invoke void @_ZN4ncnn3Net5clearEv(ptr noundef nonnull align 8 dereferenceable(80) %3)
          to label %4 unwind label %10

4:                                                ; preds = %1
  %5 = getelementptr inbounds nuw %"class.ncnn::Net", ptr %3, i32 0, i32 2
  %6 = load ptr, ptr %5, align 8, !tbaa !11
  %7 = icmp eq ptr %6, null
  br i1 %7, label %9, label %8

8:                                                ; preds = %4
  call void @_ZN4ncnn10NetPrivateD2Ev(ptr noundef nonnull align 8 dereferenceable(216) %6) #16
  call void @_ZdlPvm(ptr noundef %6, i64 noundef 216) #17
  br label %9

9:                                                ; preds = %8, %4
  ret void

10:                                               ; preds = %1
  %11 = landingpad { ptr, i32 }
          catch ptr null
  %12 = extractvalue { ptr, i32 } %11, 0
  call void @__clang_call_terminate(ptr %12) #19
  unreachable
}