; Function Attrs: mustprogress nounwind uwtable
define hidden void @_ZN4ncnn3NetD2Ev(ptr noundef nonnull align 8 captures(none) dereferenceable(80) initializes((0, 8)) %0) unnamed_addr #0 align 2 personality ptr @__gxx_personality_v0 {
  store ptr getelementptr inbounds nuw inrange(-16, 56) (i8, ptr @_ZTVN4ncnn3NetE, i64 16), ptr %0, align 8, !tbaa !4
  invoke void @_ZN4ncnn3Net5clearEv(ptr noundef nonnull align 8 dereferenceable(80) %0)
          to label %2 unwind label %8

2:                                                ; preds = %1
  %3 = getelementptr inbounds nuw i8, ptr %0, i64 72
  %4 = load ptr, ptr %3, align 8, !tbaa !7
  %5 = icmp eq ptr %4, null
  br i1 %5, label %7, label %6

6:                                                ; preds = %2
  tail call void @_ZN4ncnn10NetPrivateD2Ev(ptr noundef nonnull align 8 dereferenceable(216) %4) #26
  tail call void @_ZdlPvm(ptr noundef nonnull %4, i64 noundef 216) #27
  br label %7

7:                                                ; preds = %6, %2
  ret void

8:                                                ; preds = %1
  %9 = landingpad { ptr, i32 }
          catch ptr null
  %10 = extractvalue { ptr, i32 } %9, 0
  tail call void @__clang_call_terminate(ptr %10) #28
  unreachable
}